; ModuleID = '31/1309.c'
source_filename = "31/1309.c"
target datalayout = "e-m:e-p270:32:32-p271:32:32-p272:64:64-i64:64-f80:128-n8:16:32:64-S128"
target triple = "x86_64-pc-linux-gnu"

%struct.stu = type { [100 x i8], %struct.stu* }

@n = dso_local global i32 0, align 4

; Function Attrs: noinline nounwind uwtable
define dso_local %struct.stu* @creat() #0 {
  %1 = alloca %struct.stu*, align 8
  %2 = alloca %struct.stu*, align 8
  %3 = alloca %struct.stu*, align 8
  store %struct.stu* null, %struct.stu** %1, align 8
  store %struct.stu* null, %struct.stu** %2, align 8
  store %struct.stu* null, %struct.stu** %3, align 8
  %4 = call noalias i8* @malloc(i64 100) #3
  %5 = bitcast i8* %4 to %struct.stu*
  store %struct.stu* %5, %struct.stu** %3, align 8
  store %struct.stu* %5, %struct.stu** %2, align 8
  %6 = load %struct.stu*, %struct.stu** %2, align 8
  %7 = getelementptr inbounds %struct.stu, %struct.stu* %6, i32 0, i32 0
  %8 = getelementptr inbounds [100 x i8], [100 x i8]* %7, i64 0, i64 0
  %9 = call i32 (i8*, ...) bitcast (i32 (...)* @gets to i32 (i8*, ...)*)(i8* %8)
  br label %10

10:                                               ; preds = %29, %0
  %11 = load %struct.stu*, %struct.stu** %2, align 8
  %12 = getelementptr inbounds %struct.stu, %struct.stu* %11, i32 0, i32 0
  %13 = getelementptr inbounds [100 x i8], [100 x i8]* %12, i64 0, i64 0
  %14 = load i8, i8* %13, align 8
  %15 = sext i8 %14 to i32
  %16 = icmp ne i32 %15, 101
  br i1 %16, label %17, label %38

17:                                               ; preds = %10
  %18 = load i32, i32* @n, align 4
  %19 = add nsw i32 %18, 1
  store i32 %19, i32* @n, align 4
  %20 = load i32, i32* @n, align 4
  %21 = icmp eq i32 %20, 1
  br i1 %21, label %22, label %25

22:                                               ; preds = %17
  %23 = load %struct.stu*, %struct.stu** %2, align 8
  %24 = getelementptr inbounds %struct.stu, %struct.stu* %23, i32 0, i32 1
  store %struct.stu* null, %struct.stu** %24, align 8
  br label %29

25:                                               ; preds = %17
  %26 = load %struct.stu*, %struct.stu** %3, align 8
  %27 = load %struct.stu*, %struct.stu** %2, align 8
  %28 = getelementptr inbounds %struct.stu, %struct.stu* %27, i32 0, i32 1
  store %struct.stu* %26, %struct.stu** %28, align 8
  br label %29

29:                                               ; preds = %25, %22
  %30 = load %struct.stu*, %struct.stu** %2, align 8
  store %struct.stu* %30, %struct.stu** %1, align 8
  %31 = load %struct.stu*, %struct.stu** %2, align 8
  store %struct.stu* %31, %struct.stu** %3, align 8
  %32 = call noalias i8* @malloc(i64 100) #3
  %33 = bitcast i8* %32 to %struct.stu*
  store %struct.stu* %33, %struct.stu** %2, align 8
  %34 = load %struct.stu*, %struct.stu** %2, align 8
  %35 = getelementptr inbounds %struct.stu, %struct.stu* %34, i32 0, i32 0
  %36 = getelementptr inbounds [100 x i8], [100 x i8]* %35, i64 0, i64 0
  %37 = call i32 (i8*, ...) bitcast (i32 (...)* @gets to i32 (i8*, ...)*)(i8* %36)
  br label %10

38:                                               ; preds = %10
  %39 = load %struct.stu*, %struct.stu** %1, align 8
  ret %struct.stu* %39
}

; Function Attrs: nounwind
declare dso_local noalias i8* @malloc(i64) #1

declare dso_local i32 @gets(...) #2

; Function Attrs: noinline nounwind uwtable
define dso_local void @main() #0 {
  %1 = alloca %struct.stu*, align 8
  %2 = alloca %struct.stu*, align 8
  %3 = call %struct.stu* @creat()
  store %struct.stu* %3, %struct.stu** %1, align 8
  %4 = load %struct.stu*, %struct.stu** %1, align 8
  store %struct.stu* %4, %struct.stu** %2, align 8
  br label %5

5:                                                ; preds = %8, %0
  %6 = load i32, i32* @n, align 4
  %7 = icmp ne i32 %6, 0
  br i1 %7, label %8, label %18

8:                                                ; preds = %5
  %9 = load i32, i32* @n, align 4
  %10 = add nsw i32 %9, -1
  store i32 %10, i32* @n, align 4
  %11 = load %struct.stu*, %struct.stu** %2, align 8
  %12 = getelementptr inbounds %struct.stu, %struct.stu* %11, i32 0, i32 0
  %13 = getelementptr inbounds [100 x i8], [100 x i8]* %12, i64 0, i64 0
  %14 = call i32 @puts(i8* %13)
  %15 = load %struct.stu*, %struct.stu** %2, align 8
  %16 = getelementptr inbounds %struct.stu, %struct.stu* %15, i32 0, i32 1
  %17 = load %struct.stu*, %struct.stu** %16, align 8
  store %struct.stu* %17, %struct.stu** %2, align 8
  br label %5

18:                                               ; preds = %5
  ret void
}

declare dso_local i32 @puts(i8*) #2


!llvm.module.flags = !{!0}
!llvm.ident = !{!1}

!0 = !{i32 1, !"wchar_size", i32 4}
!1 = !{!"clang version 10.0.0-4ubuntu1 "}
